; Function Attrs: mustprogress nofree norecurse nosync nounwind memory(readwrite, inaccessiblemem: none) uwtable
define dso_local noundef zeroext i1 @_ZN4absl12log_internal11EncodeBytesEmNS_4SpanIKcEEPNS1_IcEE(i64 noundef %0, ptr readonly captures(none) %1, i64 %2, ptr noundef captures(none) %3) local_unnamed_addr #1 {
  %5 = shl i64 %0, 3
  %6 = or disjoint i64 %5, 2
  %7 = icmp ult i64 %5, 128
  br i1 %7, label %_ZN4absl12log_internal10VarintSizeEm.exit, label %tailrecurse.i

tailrecurse.i:                                    ; preds = %4, %tailrecurse.i
  %.tr3.i = phi i64 [ %8, %tailrecurse.i ], [ %6, %4 ]
  %accumulator.tr2.i = phi i64 [ %9, %tailrecurse.i ], [ 0, %4 ]
  %8 = lshr i64 %.tr3.i, 7
  %9 = add nuw nsw i64 %accumulator.tr2.i, 1
  %10 = icmp ult i64 %.tr3.i, 16384
  br i1 %10, label %tailrecurse._crit_edge.loopexit.i, label %tailrecurse.i

tailrecurse._crit_edge.loopexit.i:                ; preds = %tailrecurse.i
  %11 = add nuw i64 %accumulator.tr2.i, 2
  br label %_ZN4absl12log_internal10VarintSizeEm.exit

_ZN4absl12log_internal10VarintSizeEm.exit:        ; preds = %4, %tailrecurse._crit_edge.loopexit.i
  %accumulator.tr.lcssa.i = phi i64 [ 1, %4 ], [ %11, %tailrecurse._crit_edge.loopexit.i ]
  %12 = icmp ult i64 %2, 128
  br i1 %12, label %_ZN4absl12log_internal10VarintSizeEm.exit21, label %tailrecurse.i16

tailrecurse.i16:                                  ; preds = %_ZN4absl12log_internal10VarintSizeEm.exit, %tailrecurse.i16
  %.tr3.i17 = phi i64 [ %13, %tailrecurse.i16 ], [ %2, %_ZN4absl12log_internal10VarintSizeEm.exit ]
  %accumulator.tr2.i18 = phi i64 [ %14, %tailrecurse.i16 ], [ 0, %_ZN4absl12log_internal10VarintSizeEm.exit ]
  %13 = lshr i64 %.tr3.i17, 7
  %14 = add nuw nsw i64 %accumulator.tr2.i18, 1
  %15 = icmp ult i64 %.tr3.i17, 16384
  br i1 %15, label %tailrecurse._crit_edge.loopexit.i19, label %tailrecurse.i16

tailrecurse._crit_edge.loopexit.i19:              ; preds = %tailrecurse.i16
  %16 = add nuw i64 %accumulator.tr2.i18, 2
  br label %_ZN4absl12log_internal10VarintSizeEm.exit21

_ZN4absl12log_internal10VarintSizeEm.exit21:      ; preds = %_ZN4absl12log_internal10VarintSizeEm.exit, %tailrecurse._crit_edge.loopexit.i19
  %accumulator.tr.lcssa.i20 = phi i64 [ 1, %_ZN4absl12log_internal10VarintSizeEm.exit ], [ %16, %tailrecurse._crit_edge.loopexit.i19 ]
  %17 = add i64 %accumulator.tr.lcssa.i, %2
  %18 = add i64 %17, %accumulator.tr.lcssa.i20
  %19 = getelementptr inbounds nuw i8, ptr %3, i64 8
  %20 = load i64, ptr %19, align 8, !tbaa !4
  %21 = icmp ule i64 %18, %20
  br i1 %21, label %.lr.ph.i, label %52

.lr.ph.i:                                         ; preds = %_ZN4absl12log_internal10VarintSizeEm.exit21, %.lr.ph.i
  %.013.i = phi i64 [ %23, %.lr.ph.i ], [ 0, %_ZN4absl12log_internal10VarintSizeEm.exit21 ]
  %.01012.i = phi i64 [ %30, %.lr.ph.i ], [ %6, %_ZN4absl12log_internal10VarintSizeEm.exit21 ]
  %22 = and i64 %.01012.i, 127
  %23 = add nuw nsw i64 %.013.i, 1
  %24 = icmp eq i64 %23, %accumulator.tr.lcssa.i
  %25 = select i1 %24, i64 0, i64 128
  %26 = or disjoint i64 %25, %22
  %27 = trunc nuw i64 %26 to i8
  %28 = load ptr, ptr %3, align 8, !tbaa !11
  %29 = getelementptr inbounds nuw i8, ptr %28, i64 %.013.i
  store i8 %27, ptr %29, align 1, !tbaa !12
  %30 = lshr i64 %.01012.i, 7
  br i1 %24, label %_ZN4absl12log_internal12_GLOBAL__N_115EncodeRawVarintEmmPNS_4SpanIcEE.exit, label %.lr.ph.i, !llvm.loop !13

_ZN4absl12log_internal12_GLOBAL__N_115EncodeRawVarintEmmPNS_4SpanIcEE.exit: ; preds = %.lr.ph.i
  %31 = load ptr, ptr %3, align 8, !tbaa !11
  %32 = getelementptr inbounds nuw i8, ptr %31, i64 %accumulator.tr.lcssa.i
  store ptr %32, ptr %3, align 8, !tbaa !11
  %33 = load i64, ptr %19, align 8, !tbaa !4
  %34 = sub i64 %33, %accumulator.tr.lcssa.i
  store i64 %34, ptr %19, align 8, !tbaa !4
  br label %.lr.ph.i22

.lr.ph.i22:                                       ; preds = %_ZN4absl12log_internal12_GLOBAL__N_115EncodeRawVarintEmmPNS_4SpanIcEE.exit, %.lr.ph.i22
  %.013.i23 = phi i64 [ %36, %.lr.ph.i22 ], [ 0, %_ZN4absl12log_internal12_GLOBAL__N_115EncodeRawVarintEmmPNS_4SpanIcEE.exit ]
  %.01012.i24 = phi i64 [ %43, %.lr.ph.i22 ], [ %2, %_ZN4absl12log_internal12_GLOBAL__N_115EncodeRawVarintEmmPNS_4SpanIcEE.exit ]
  %35 = and i64 %.01012.i24, 127
  %36 = add nuw nsw i64 %.013.i23, 1
  %37 = icmp eq i64 %36, %accumulator.tr.lcssa.i20
  %38 = select i1 %37, i64 0, i64 128
  %39 = or disjoint i64 %38, %35
  %40 = trunc nuw i64 %39 to i8
  %41 = load ptr, ptr %3, align 8, !tbaa !11
  %42 = getelementptr inbounds nuw i8, ptr %41, i64 %.013.i23
  store i8 %40, ptr %42, align 1, !tbaa !12
  %43 = lshr i64 %.01012.i24, 7
  br i1 %37, label %_ZN4absl12log_internal12_GLOBAL__N_115EncodeRawVarintEmmPNS_4SpanIcEE.exit26, label %.lr.ph.i22, !llvm.loop !13

_ZN4absl12log_internal12_GLOBAL__N_115EncodeRawVarintEmmPNS_4SpanIcEE.exit26: ; preds = %.lr.ph.i22
  %44 = load ptr, ptr %3, align 8, !tbaa !11
  %45 = getelementptr inbounds nuw i8, ptr %44, i64 %accumulator.tr.lcssa.i20
  store ptr %45, ptr %3, align 8, !tbaa !11
  %46 = load i64, ptr %19, align 8, !tbaa !4
  %47 = sub i64 %46, %accumulator.tr.lcssa.i20
  store i64 %47, ptr %19, align 8, !tbaa !4
  tail call void @llvm.memcpy.p0.p0.i64(ptr nonnull align 1 %45, ptr align 1 %1, i64 %2, i1 false)
  %48 = load ptr, ptr %3, align 8, !tbaa !11
  %49 = getelementptr inbounds nuw i8, ptr %48, i64 %2
  store ptr %49, ptr %3, align 8, !tbaa !11
  %50 = load i64, ptr %19, align 8, !tbaa !4
  %51 = sub i64 %50, %2
  br label %52

52:                                               ; preds = %_ZN4absl12log_internal10VarintSizeEm.exit21, %_ZN4absl12log_internal12_GLOBAL__N_115EncodeRawVarintEmmPNS_4SpanIcEE.exit26
  %storemerge = phi i64 [ %51, %_ZN4absl12log_internal12_GLOBAL__N_115EncodeRawVarintEmmPNS_4SpanIcEE.exit26 ], [ 0, %_ZN4absl12log_internal10VarintSizeEm.exit21 ]
  store i64 %storemerge, ptr %19, align 8, !tbaa !4
  ret i1 %21
}